; Function Attrs: mustprogress noreturn uwtable
define void @_ZN3gmx28too_many_constraint_warningsE19ConstraintAlgorithmi(i32 noundef %0, i32 noundef %1) local_unnamed_addr #6 personality ptr @__gxx_personality_v0 {
  %3 = alloca %"class.std::filesystem::__cxx11::path", align 8
  call void @llvm.lifetime.start.p0(i64 40, ptr nonnull %3) #16
  call void @_ZNSt10filesystem7__cxx114pathC2IA122_cS1_EERKT_NS1_6formatE(ptr noundef nonnull align 8 dereferenceable(40) %3, ptr noundef nonnull align 1 dereferenceable(122) @.str, i8 noundef zeroext 2)
  %4 = icmp eq i32 %0, 0
  %5 = select i1 %4, ptr @.str.2, ptr @.str.3
  %6 = select i1 %4, ptr @.str.4, ptr @.str.5
  invoke void (i32, ptr, i32, ptr, ...) @_Z9gmx_fataliRKNSt10filesystem7__cxx114pathEiPKcz(i32 noundef 0, ptr noundef nonnull align 8 dereferenceable(40) %3, i32 noundef 254, ptr noundef nonnull @.str.1, ptr noundef nonnull %5, i32 noundef %1, ptr noundef nonnull %6) #34
          to label %7 unwind label %8

7:                                                ; preds = %2
  unreachable

8:                                                ; preds = %2
  %9 = landingpad { ptr, i32 }
          cleanup
  %10 = getelementptr inbounds nuw i8, ptr %3, i64 32
  %11 = load ptr, ptr %10, align 8, !tbaa !68
  %.not.i.i.i = icmp eq ptr %11, null
  br i1 %.not.i.i.i, label %_ZNSt10filesystem7__cxx114path5_ListD2Ev.exit.i, label %12

12:                                               ; preds = %8
  call void @_ZNKSt10filesystem7__cxx114path5_List13_Impl_deleterclEPNS2_5_ImplE(ptr noundef nonnull align 8 dereferenceable(8) %10, ptr noundef nonnull %11) #16
  br label %_ZNSt10filesystem7__cxx114path5_ListD2Ev.exit.i

_ZNSt10filesystem7__cxx114path5_ListD2Ev.exit.i:  ; preds = %12, %8
  store ptr null, ptr %10, align 8, !tbaa !68
  %13 = load ptr, ptr %3, align 8, !tbaa !70
  %14 = getelementptr inbounds nuw i8, ptr %3, i64 16
  %15 = icmp eq ptr %13, %14
  br i1 %15, label %_ZNKSt7__cxx1112basic_stringIcSt11char_traitsIcESaIcEE11_M_is_localEv.exit.thread.i.i.i, label %_ZNKSt7__cxx1112basic_stringIcSt11char_traitsIcESaIcEE11_M_is_localEv.exit.i.i.i

_ZNKSt7__cxx1112basic_stringIcSt11char_traitsIcESaIcEE11_M_is_localEv.exit.thread.i.i.i: ; preds = %_ZNSt10filesystem7__cxx114path5_ListD2Ev.exit.i
  %16 = getelementptr inbounds nuw i8, ptr %3, i64 8
  %17 = load i64, ptr %16, align 8, !tbaa !75
  %18 = icmp ult i64 %17, 16
  call void @llvm.assume(i1 %18)
  br label %_ZNSt10filesystem7__cxx114pathD2Ev.exit

_ZNKSt7__cxx1112basic_stringIcSt11char_traitsIcESaIcEE11_M_is_localEv.exit.i.i.i: ; preds = %_ZNSt10filesystem7__cxx114path5_ListD2Ev.exit.i
  %19 = load i64, ptr %14, align 8, !tbaa !65
  %20 = add i64 %19, 1
  call void @_ZdlPvm(ptr noundef %13, i64 noundef %20) #32
  br label %_ZNSt10filesystem7__cxx114pathD2Ev.exit

_ZNSt10filesystem7__cxx114pathD2Ev.exit:          ; preds = %_ZNKSt7__cxx1112basic_stringIcSt11char_traitsIcESaIcEE11_M_is_localEv.exit.thread.i.i.i, %_ZNKSt7__cxx1112basic_stringIcSt11char_traitsIcESaIcEE11_M_is_localEv.exit.i.i.i
  call void @llvm.lifetime.end.p0(i64 40, ptr nonnull %3) #16
  resume { ptr, i32 } %9
}